; Function Attrs: nounwind uwtable
define internal fastcc range(i32 -901, 1) i32 @hd_inflate_commit_indname(ptr noundef captures(none) %0, ptr noundef writeonly captures(none) %1) unnamed_addr #0 {
  %3 = alloca %struct.nghttp2_hd_nv, align 8
  call void @llvm.lifetime.start.p0(i64 24, ptr nonnull %3) #13
  %4 = getelementptr inbounds nuw i8, ptr %0, i64 192
  %5 = load i64, ptr %4, align 8, !tbaa !107
  %6 = icmp ugt i64 %5, 60
  br i1 %6, label %7, label %18

7:                                                ; preds = %2
  %8 = add i64 %5, -61
  %9 = load ptr, ptr %0, align 8, !tbaa !40, !noalias !117
  %10 = getelementptr inbounds nuw i8, ptr %0, i64 16
  %11 = load i64, ptr %10, align 8, !tbaa !63, !noalias !117
  %12 = add i64 %8, %11
  %13 = getelementptr inbounds nuw i8, ptr %0, i64 8
  %14 = load i64, ptr %13, align 8, !tbaa !41, !noalias !117
  %15 = and i64 %12, %14
  %16 = getelementptr inbounds nuw ptr, ptr %9, i64 %15
  %17 = load ptr, ptr %16, align 8, !tbaa !64, !noalias !117
  %.sroa.0.0.copyload13 = load ptr, ptr %17, align 8, !tbaa !5
  %.sroa.6.0..sroa_idx16 = getelementptr inbounds nuw i8, ptr %17, i64 16
  %.sroa.7.0..sroa_idx18 = getelementptr inbounds nuw i8, ptr %17, i64 20
  %.sroa.7.0.copyload19 = load i32, ptr %.sroa.7.0..sroa_idx18, align 4
  br label %nghttp2_hd_table_get.exit

18:                                               ; preds = %2
  %19 = getelementptr inbounds nuw [61 x %struct.nghttp2_hd_static_entry], ptr @static_table, i64 0, i64 %5
  %20 = getelementptr inbounds nuw i8, ptr %19, i64 120
  br label %nghttp2_hd_table_get.exit

nghttp2_hd_table_get.exit:                        ; preds = %7, %18
  %.sroa.7.0 = phi i32 [ %.sroa.7.0.copyload19, %7 ], [ 0, %18 ]
  %.sroa.6.0.in = phi ptr [ %.sroa.6.0..sroa_idx16, %7 ], [ %20, %18 ]
  %.sroa.0.0 = phi ptr [ %.sroa.0.0.copyload13, %7 ], [ %19, %18 ]
  %.sroa.6.0 = load i32, ptr %.sroa.6.0.in, align 8, !tbaa !10
  store ptr %.sroa.0.0, ptr %3, align 8, !tbaa !5
  %.sroa.5.0..sroa_idx = getelementptr inbounds nuw i8, ptr %3, i64 8
  %.sroa.6.0..sroa_idx = getelementptr inbounds nuw i8, ptr %3, i64 16
  store i32 %.sroa.6.0, ptr %.sroa.6.0..sroa_idx, align 8, !tbaa !10
  %.sroa.7.0..sroa_idx = getelementptr inbounds nuw i8, ptr %3, i64 20
  store i32 %.sroa.7.0, ptr %.sroa.7.0..sroa_idx, align 4
  %21 = getelementptr inbounds nuw i8, ptr %0, i64 234
  %22 = load i8, ptr %21, align 2, !tbaa !61
  %.not = icmp ne i8 %22, 0
  %. = zext i1 %.not to i8
  store i8 %., ptr %.sroa.7.0..sroa_idx, align 4, !tbaa !28
  tail call void @nghttp2_rcbuf_incref(ptr noundef %.sroa.0.0) #13
  %23 = getelementptr inbounds nuw i8, ptr %0, i64 160
  %24 = load ptr, ptr %23, align 8, !tbaa !69
  store ptr %24, ptr %.sroa.5.0..sroa_idx, align 8, !tbaa !25
  %25 = getelementptr inbounds nuw i8, ptr %0, i64 233
  %26 = load i8, ptr %25, align 1, !tbaa !60
  %.not11 = icmp eq i8 %26, 0
  br i1 %.not11, label %30, label %27

27:                                               ; preds = %nghttp2_hd_table_get.exit
  %28 = call fastcc i32 @add_hd_table_incremental(ptr noundef nonnull %0, ptr noundef %3, ptr noundef null, i32 noundef 0)
  %.not12 = icmp eq i32 %28, 0
  br i1 %.not12, label %30, label %29

29:                                               ; preds = %27
  tail call void @nghttp2_rcbuf_decref(ptr noundef %.sroa.0.0) #13
  br label %33

30:                                               ; preds = %27, %nghttp2_hd_table_get.exit
  call void @llvm.memcpy.p0.p0.i64(ptr noundef nonnull align 8 dereferenceable(24) %1, ptr noundef nonnull readonly align 8 dereferenceable(24) %3, i64 24, i1 false), !tbaa.struct !4
  %31 = getelementptr inbounds nuw i8, ptr %0, i64 168
  store ptr %.sroa.0.0, ptr %31, align 8, !tbaa !68
  %32 = getelementptr inbounds nuw i8, ptr %0, i64 176
  store ptr %24, ptr %32, align 8, !tbaa !67
  store ptr null, ptr %23, align 8, !tbaa !69
  br label %33

33:                                               ; preds = %30, %29
  %.0 = phi i32 [ -901, %29 ], [ 0, %30 ]
  call void @llvm.lifetime.end.p0(i64 24, ptr nonnull %3) #13
  ret i32 %.0
}